target datalayout = "e-m:e-p270:32:32-p271:32:32-p272:64:64-i64:64-i128:128-f80:128-n8:16:32:64-S128"
target triple = "x86_64-pc-linux-gnu"

%struct.evthread_lock_callbacks = type { i32, i32, ptr, ptr, ptr, ptr }
%struct.evbuffer = type { ptr, ptr, ptr, i64, i64, i64, i64, ptr, i8, i32, ptr, i32, %struct.event_callback, %struct.evbuffer_cb_queue, ptr }
%struct.event_callback = type { %struct.anon, i16, i8, i8, %union.anon, ptr }
%struct.anon = type { ptr, ptr }
%union.anon = type { ptr }
%struct.evbuffer_cb_queue = type { ptr }
%struct.evbuffer_ptr = type { i64, %struct.anon.0 }
%struct.anon.0 = type { ptr, i64 }

@evthread_lock_fns_ = external global %struct.evthread_lock_callbacks, align 8
@.str = private unnamed_addr constant [18 x i8] c"%s: out of memory\00", align 1
@__func__.evbuffer_readln = private unnamed_addr constant [16 x i8] c"evbuffer_readln\00", align 1

; Function Attrs: nounwind uwtable
define ptr @evbuffer_readln(ptr noundef %0, ptr noundef %1, i32 noundef %2) #0 {
  %4 = alloca ptr, align 8
  %5 = alloca ptr, align 8
  %6 = alloca i32, align 4
  %7 = alloca %struct.evbuffer_ptr, align 8
  %8 = alloca ptr, align 8
  %9 = alloca i64, align 8
  %10 = alloca i64, align 8
  %11 = alloca ptr, align 8
  %12 = alloca %struct.evbuffer_ptr, align 8
  store ptr %0, ptr %4, align 8
  store ptr %1, ptr %5, align 8
  store i32 %2, ptr %6, align 4
  call void @llvm.lifetime.start.p0(i64 24, ptr %7) #10
  call void @llvm.lifetime.start.p0(i64 8, ptr %8) #10
  call void @llvm.lifetime.start.p0(i64 8, ptr %9) #10
  store i64 0, ptr %9, align 8
  call void @llvm.lifetime.start.p0(i64 8, ptr %10) #10
  store i64 0, ptr %10, align 8
  call void @llvm.lifetime.start.p0(i64 8, ptr %11) #10
  store ptr null, ptr %11, align 8
  br label %13

13:                                               ; preds = %3
  br label %14

14:                                               ; preds = %13
  %15 = load ptr, ptr %4, align 8
  %16 = getelementptr inbounds nuw %struct.evbuffer, ptr %15, i32 0, i32 7
  %17 = load ptr, ptr %16, align 8
  %18 = icmp ne ptr %17, null
  br i1 %18, label %19, label %25

19:                                               ; preds = %14
  %20 = load ptr, ptr getelementptr inbounds nuw (%struct.evthread_lock_callbacks, ptr @evthread_lock_fns_, i32 0, i32 4), align 8
  %21 = load ptr, ptr %4, align 8
  %22 = getelementptr inbounds nuw %struct.evbuffer, ptr %21, i32 0, i32 7
  %23 = load ptr, ptr %22, align 8
  %24 = call i32 %20(i32 noundef 0, ptr noundef %23)
  br label %25

25:                                               ; preds = %19, %14
  br label %26

26:                                               ; preds = %25
  br label %27

27:                                               ; preds = %26
  br label %28

28:                                               ; preds = %27
  br label %29

29:                                               ; preds = %28
  %30 = load ptr, ptr %4, align 8
  %31 = getelementptr inbounds nuw %struct.evbuffer, ptr %30, i32 0, i32 8
  %32 = load i8, ptr %31, align 8
  %33 = lshr i8 %32, 1
  %34 = and i8 %33, 1
  %35 = zext i8 %34 to i32
  %36 = icmp ne i32 %35, 0
  br i1 %36, label %37, label %38

37:                                               ; preds = %29
  br label %65

38:                                               ; preds = %29
  call void @llvm.lifetime.start.p0(i64 24, ptr %12) #10
  %39 = load ptr, ptr %4, align 8
  %40 = load i32, ptr %6, align 4
  call void @evbuffer_search_eol(ptr dead_on_unwind writable sret(%struct.evbuffer_ptr) align 8 %12, ptr noundef %39, ptr noundef null, ptr noundef %10, i32 noundef %40)
  call void @llvm.memcpy.p0.p0.i64(ptr align 8 %7, ptr align 8 %12, i64 24, i1 false)
  call void @llvm.lifetime.end.p0(i64 24, ptr %12) #10
  %41 = getelementptr inbounds nuw %struct.evbuffer_ptr, ptr %7, i32 0, i32 0
  %42 = load i64, ptr %41, align 8
  %43 = icmp slt i64 %42, 0
  br i1 %43, label %44, label %45

44:                                               ; preds = %38
  br label %65

45:                                               ; preds = %38
  %46 = getelementptr inbounds nuw %struct.evbuffer_ptr, ptr %7, i32 0, i32 0
  %47 = load i64, ptr %46, align 8
  store i64 %47, ptr %9, align 8
  %48 = load i64, ptr %9, align 8
  %49 = add i64 %48, 1
  %50 = call ptr @event_mm_malloc_(i64 noundef %49)
  store ptr %50, ptr %8, align 8
  %51 = icmp eq ptr %50, null
  br i1 %51, label %52, label %53

52:                                               ; preds = %45
  call void (ptr, ...) @event_warn(ptr noundef @.str, ptr noundef @__func__.evbuffer_readln)
  br label %65

53:                                               ; preds = %45
  %54 = load ptr, ptr %4, align 8
  %55 = load ptr, ptr %8, align 8
  %56 = load i64, ptr %9, align 8
  %57 = call i32 @evbuffer_remove(ptr noundef %54, ptr noundef %55, i64 noundef %56)
  %58 = load ptr, ptr %8, align 8
  %59 = load i64, ptr %9, align 8
  %60 = getelementptr inbounds nuw i8, ptr %58, i64 %59
  store i8 0, ptr %60, align 1
  %61 = load ptr, ptr %4, align 8
  %62 = load i64, ptr %10, align 8
  %63 = call i32 @evbuffer_drain(ptr noundef %61, i64 noundef %62)
  %64 = load ptr, ptr %8, align 8
  store ptr %64, ptr %11, align 8
  br label %65

65:                                               ; preds = %53, %52, %44, %37
  br label %66

66:                                               ; preds = %65
  br label %67

67:                                               ; preds = %66
  %68 = load ptr, ptr %4, align 8
  %69 = getelementptr inbounds nuw %struct.evbuffer, ptr %68, i32 0, i32 7
  %70 = load ptr, ptr %69, align 8
  %71 = icmp ne ptr %70, null
  br i1 %71, label %72, label %78

72:                                               ; preds = %67
  %73 = load ptr, ptr getelementptr inbounds nuw (%struct.evthread_lock_callbacks, ptr @evthread_lock_fns_, i32 0, i32 5), align 8
  %74 = load ptr, ptr %4, align 8
  %75 = getelementptr inbounds nuw %struct.evbuffer, ptr %74, i32 0, i32 7
  %76 = load ptr, ptr %75, align 8
  %77 = call i32 %73(i32 noundef 0, ptr noundef %76)
  br label %78

78:                                               ; preds = %72, %67
  br label %79

79:                                               ; preds = %78
  br label %80

80:                                               ; preds = %79
  br label %81

81:                                               ; preds = %80
  br label %82

82:                                               ; preds = %81
  %83 = load ptr, ptr %5, align 8
  %84 = icmp ne ptr %83, null
  br i1 %84, label %85, label %94

85:                                               ; preds = %82
  %86 = load ptr, ptr %11, align 8
  %87 = icmp ne ptr %86, null
  br i1 %87, label %88, label %90

88:                                               ; preds = %85
  %89 = load i64, ptr %9, align 8
  br label %91

90:                                               ; preds = %85
  br label %91

91:                                               ; preds = %90, %88
  %92 = phi i64 [ %89, %88 ], [ 0, %90 ]
  %93 = load ptr, ptr %5, align 8
  store i64 %92, ptr %93, align 8
  br label %94

94:                                               ; preds = %91, %82
  %95 = load ptr, ptr %11, align 8
  call void @llvm.lifetime.end.p0(i64 8, ptr %11) #10
  call void @llvm.lifetime.end.p0(i64 8, ptr %10) #10
  call void @llvm.lifetime.end.p0(i64 8, ptr %9) #10
  call void @llvm.lifetime.end.p0(i64 8, ptr %8) #10
  call void @llvm.lifetime.end.p0(i64 24, ptr %7) #10
  ret ptr %95
}