; Function Attrs: nounwind uwtable
define ptr @evbuffer_readln(ptr noundef %0, ptr noundef writeonly captures(address_is_null) %1, i32 noundef %2) local_unnamed_addr #1 {
  %4 = alloca i64, align 8
  %5 = alloca %struct.evbuffer_ptr, align 8
  call void @llvm.lifetime.start.p0(i64 8, ptr nonnull %4) #16
  store i64 0, ptr %4, align 8
  %6 = getelementptr inbounds nuw i8, ptr %0, i64 56
  %7 = load ptr, ptr %6, align 8
  %.not = icmp eq ptr %7, null
  br i1 %.not, label %11, label %8

8:                                                ; preds = %3
  %9 = load ptr, ptr getelementptr inbounds nuw (i8, ptr @evthread_lock_fns_, i64 24), align 8
  %10 = tail call i32 %9(i32 noundef 0, ptr noundef nonnull %7) #16
  br label %11

11:                                               ; preds = %8, %3
  %12 = getelementptr inbounds nuw i8, ptr %0, i64 64
  %13 = load i8, ptr %12, align 8
  %14 = and i8 %13, 2
  %.not25 = icmp eq i8 %14, 0
  br i1 %.not25, label %15, label %27

15:                                               ; preds = %11
  call void @llvm.lifetime.start.p0(i64 24, ptr nonnull %5) #16
  call void @evbuffer_search_eol(ptr dead_on_unwind nonnull writable sret(%struct.evbuffer_ptr) align 8 %5, ptr noundef nonnull %0, ptr noundef null, ptr noundef nonnull %4, i32 noundef %2)
  %.sroa.0.0.copyload = load i64, ptr %5, align 8
  call void @llvm.lifetime.end.p0(i64 24, ptr nonnull %5) #16
  %16 = icmp slt i64 %.sroa.0.0.copyload, 0
  br i1 %16, label %27, label %17

17:                                               ; preds = %15
  %18 = add nuw i64 %.sroa.0.0.copyload, 1
  %19 = call ptr @event_mm_malloc_(i64 noundef %18) #16
  %20 = icmp eq ptr %19, null
  br i1 %20, label %21, label %22

21:                                               ; preds = %17
  call void (ptr, ...) @event_warn(ptr noundef nonnull @.str, ptr noundef nonnull @__func__.evbuffer_readln) #16
  br label %27

22:                                               ; preds = %17
  %23 = call i32 @evbuffer_remove(ptr noundef nonnull %0, ptr noundef nonnull %19, i64 noundef %.sroa.0.0.copyload)
  %24 = getelementptr inbounds nuw i8, ptr %19, i64 %.sroa.0.0.copyload
  store i8 0, ptr %24, align 1
  %25 = load i64, ptr %4, align 8
  %26 = call i32 @evbuffer_drain(ptr noundef nonnull %0, i64 noundef %25)
  br label %27

27:                                               ; preds = %15, %11, %22, %21
  %.020 = phi i64 [ 0, %11 ], [ 0, %15 ], [ %.sroa.0.0.copyload, %21 ], [ %.sroa.0.0.copyload, %22 ]
  %.0 = phi ptr [ null, %11 ], [ null, %15 ], [ null, %21 ], [ %19, %22 ]
  %28 = load ptr, ptr %6, align 8
  %.not26 = icmp eq ptr %28, null
  br i1 %.not26, label %32, label %29

29:                                               ; preds = %27
  %30 = load ptr, ptr getelementptr inbounds nuw (i8, ptr @evthread_lock_fns_, i64 32), align 8
  %31 = call i32 %30(i32 noundef 0, ptr noundef nonnull %28) #16
  br label %32

32:                                               ; preds = %29, %27
  %.not27 = icmp eq ptr %1, null
  br i1 %.not27, label %35, label %33

33:                                               ; preds = %32
  %.not28 = icmp eq ptr %.0, null
  %34 = select i1 %.not28, i64 0, i64 %.020
  store i64 %34, ptr %1, align 8
  br label %35

35:                                               ; preds = %33, %32
  call void @llvm.lifetime.end.p0(i64 8, ptr nonnull %4) #16
  ret ptr %.0
}